target datalayout = "e-m:e-p270:32:32-p271:32:32-p272:64:64-i64:64-i128:128-f80:128-n8:16:32:64-S128"
target triple = "x86_64-pc-linux-gnu"

%"struct.std::_Rb_tree_key_compare" = type { %"struct.std::less" }
%"struct.std::less" = type { i8 }
%"struct.std::_Rb_tree_header" = type { %"struct.std::_Rb_tree_node_base", i64 }
%"struct.std::_Rb_tree_node_base" = type { i32, ptr, ptr, ptr }
%"struct.casadi::CvodesMemory" = type { %"struct.casadi::SundialsMemory.base", ptr, ptr, i32, double, double }
%"struct.casadi::SundialsMemory.base" = type <{ %"struct.casadi::IntegratorMemory", ptr, ptr, ptr, ptr, ptr, ptr, i8, [7 x i8], ptr, ptr, ptr, ptr, ptr, ptr, ptr, ptr, i64, i64, i64, i64, i32, i32, double, double, double, double, i64, i64, i64, i64, i64, i64, i32, i32, double, double, double, double, i64, i64, i64, i64, i64, i64, i64, i64, ptr, ptr, i32, [4 x i8], ptr, i32 }>
%"struct.casadi::IntegratorMemory" = type { %"struct.casadi::OracleMemory", i64, double, double, double }
%"struct.casadi::OracleMemory" = type { %"struct.casadi::FunctionMemory", ptr, ptr, ptr, ptr, %"class.std::vector.64" }
%"struct.casadi::FunctionMemory" = type { %"struct.casadi::ProtoFunctionMemory" }
%"struct.casadi::ProtoFunctionMemory" = type { %"class.std::map.59", ptr }
%"class.std::map.59" = type { %"class.std::_Rb_tree.60" }
%"class.std::_Rb_tree.60" = type { %"struct.std::_Rb_tree<std::__cxx11::basic_string<char>, std::pair<const std::__cxx11::basic_string<char>, casadi::FStats>, std::_Select1st<std::pair<const std::__cxx11::basic_string<char>, casadi::FStats>>, std::less<std::__cxx11::basic_string<char>>>::_Rb_tree_impl" }
%"struct.std::_Rb_tree<std::__cxx11::basic_string<char>, std::pair<const std::__cxx11::basic_string<char>, casadi::FStats>, std::_Select1st<std::pair<const std::__cxx11::basic_string<char>, casadi::FStats>>, std::less<std::__cxx11::basic_string<char>>>::_Rb_tree_impl" = type { %"struct.std::_Rb_tree_key_compare", %"struct.std::_Rb_tree_header" }
%"class.std::vector.64" = type { %"struct.std::_Vector_base.65" }
%"struct.std::_Vector_base.65" = type { %"struct.std::_Vector_base<casadi::LocalOracleMemory *, std::allocator<casadi::LocalOracleMemory *>>::_Vector_impl" }
%"struct.std::_Vector_base<casadi::LocalOracleMemory *, std::allocator<casadi::LocalOracleMemory *>>::_Vector_impl" = type { %"struct.std::_Vector_base<casadi::LocalOracleMemory *, std::allocator<casadi::LocalOracleMemory *>>::_Vector_impl_data" }
%"struct.std::_Vector_base<casadi::LocalOracleMemory *, std::allocator<casadi::LocalOracleMemory *>>::_Vector_impl_data" = type { ptr, ptr, ptr }

@_ZTISt9exception = external constant ptr
@.str.108 = private unnamed_addr constant [17 x i8] c"psetupB failed: \00", align 1

; Function Attrs: mustprogress uwtable
define noundef i32 @_ZN6casadi15CvodesInterface7psetupBEdP17_generic_N_VectorS2_S2_iPidPvS2_S2_S2_(double noundef %0, ptr noundef %1, ptr noundef %2, ptr noundef %3, i32 noundef %4, ptr noundef %5, double noundef %6, ptr noundef %7, ptr noundef %8, ptr noundef %9, ptr noundef %10) #4 align 2 personality ptr @__gxx_personality_v0 {
  %12 = alloca i32, align 4
  %13 = alloca double, align 8
  %14 = alloca ptr, align 8
  %15 = alloca ptr, align 8
  %16 = alloca ptr, align 8
  %17 = alloca i32, align 4
  %18 = alloca ptr, align 8
  %19 = alloca double, align 8
  %20 = alloca ptr, align 8
  %21 = alloca ptr, align 8
  %22 = alloca ptr, align 8
  %23 = alloca ptr, align 8
  %24 = alloca ptr, align 8
  %25 = alloca ptr, align 8
  %26 = alloca i32, align 4
  %27 = alloca ptr, align 8
  store double %0, ptr %13, align 8
  store ptr %1, ptr %14, align 8
  store ptr %2, ptr %15, align 8
  store ptr %3, ptr %16, align 8
  store i32 %4, ptr %17, align 4
  store ptr %5, ptr %18, align 8
  store double %6, ptr %19, align 8
  store ptr %7, ptr %20, align 8
  store ptr %8, ptr %21, align 8
  store ptr %9, ptr %22, align 8
  store ptr %10, ptr %23, align 8
  %28 = load ptr, ptr %20, align 8
  %29 = invoke noundef ptr @_ZN6casadi15CvodesInterface6to_memEPv(ptr noundef %28)
          to label %30 unwind label %46

30:                                               ; preds = %11
  store ptr %29, ptr %24, align 8
  %31 = load double, ptr %19, align 8
  %32 = load ptr, ptr %24, align 8
  %33 = getelementptr inbounds %"struct.casadi::CvodesMemory", ptr %32, i32 0, i32 5
  store double %31, ptr %33, align 8
  %34 = load double, ptr %13, align 8
  %35 = load ptr, ptr %14, align 8
  %36 = load i32, ptr %17, align 4
  %37 = load ptr, ptr %18, align 8
  %38 = load double, ptr %19, align 8
  %39 = fneg double %38
  %40 = load ptr, ptr %20, align 8
  %41 = load ptr, ptr %21, align 8
  %42 = load ptr, ptr %22, align 8
  %43 = load ptr, ptr %23, align 8
  %44 = invoke noundef i32 @_ZN6casadi15CvodesInterface7psetupFEdP17_generic_N_VectorS2_iPidPvS2_S2_S2_(double noundef %34, ptr noundef %35, ptr noundef null, i32 noundef %36, ptr noundef %37, double noundef %39, ptr noundef %40, ptr noundef %41, ptr noundef %42, ptr noundef %43)
          to label %45 unwind label %46

45:                                               ; preds = %30
  store i32 %44, ptr %12, align 4
  br label %76

46:                                               ; preds = %30, %11
  %47 = landingpad { ptr, i32 }
          catch ptr @_ZTISt9exception
  %48 = extractvalue { ptr, i32 } %47, 0
  store ptr %48, ptr %25, align 8
  %49 = extractvalue { ptr, i32 } %47, 1
  store i32 %49, ptr %26, align 4
  br label %50

50:                                               ; preds = %46
  %51 = load i32, ptr %26, align 4
  %52 = call i32 @llvm.eh.typeid.for(ptr @_ZTISt9exception) #3
  %53 = icmp eq i32 %51, %52
  br i1 %53, label %54, label %78

54:                                               ; preds = %50
  %55 = load ptr, ptr %25, align 8
  %56 = call ptr @__cxa_begin_catch(ptr %55) #3
  store ptr %56, ptr %27, align 8
  %57 = invoke noundef nonnull align 8 dereferenceable(8) ptr @_ZN6casadi4uerrEv()
          to label %58 unwind label %70

58:                                               ; preds = %54
  %59 = invoke noundef nonnull align 8 dereferenceable(8) ptr @_ZStlsISt11char_traitsIcEERSt13basic_ostreamIcT_ES5_PKc(ptr noundef nonnull align 8 dereferenceable(8) %57, ptr noundef @.str.108)
          to label %60 unwind label %70

60:                                               ; preds = %58
  %61 = load ptr, ptr %27, align 8
  %62 = load ptr, ptr %61, align 8
  %63 = getelementptr inbounds ptr, ptr %62, i64 2
  %64 = load ptr, ptr %63, align 8
  %65 = call noundef ptr %64(ptr noundef nonnull align 8 dereferenceable(8) %61) #3
  %66 = invoke noundef nonnull align 8 dereferenceable(8) ptr @_ZStlsISt11char_traitsIcEERSt13basic_ostreamIcT_ES5_PKc(ptr noundef nonnull align 8 dereferenceable(8) %59, ptr noundef %65)
          to label %67 unwind label %70

67:                                               ; preds = %60
  %68 = invoke noundef nonnull align 8 dereferenceable(8) ptr @_ZNSolsEPFRSoS_E(ptr noundef nonnull align 8 dereferenceable(8) %66, ptr noundef @_ZSt4endlIcSt11char_traitsIcEERSt13basic_ostreamIT_T0_ES6_)
          to label %69 unwind label %70

69:                                               ; preds = %67
  store i32 -1, ptr %12, align 4
  call void @__cxa_end_catch()
  br label %76

70:                                               ; preds = %67, %60, %58, %54
  %71 = landingpad { ptr, i32 }
          cleanup
  %72 = extractvalue { ptr, i32 } %71, 0
  store ptr %72, ptr %25, align 8
  %73 = extractvalue { ptr, i32 } %71, 1
  store i32 %73, ptr %26, align 4
  invoke void @__cxa_end_catch()
          to label %74 unwind label %83

74:                                               ; preds = %70
  br label %78

75:                                               ; No predecessors!
  call void @llvm.trap()
  unreachable

76:                                               ; preds = %69, %45
  %77 = load i32, ptr %12, align 4
  ret i32 %77

78:                                               ; preds = %74, %50
  %79 = load ptr, ptr %25, align 8
  %80 = load i32, ptr %26, align 4
  %81 = insertvalue { ptr, i32 } poison, ptr %79, 0
  %82 = insertvalue { ptr, i32 } %81, i32 %80, 1
  resume { ptr, i32 } %82

83:                                               ; preds = %70
  %84 = landingpad { ptr, i32 }
          catch ptr null
  %85 = extractvalue { ptr, i32 } %84, 0
  call void @__clang_call_terminate(ptr %85) #17
  unreachable
}