; Function Attrs: mustprogress uwtable
define noundef i32 @_ZN6casadi15CvodesInterface7psetupBEdP17_generic_N_VectorS2_S2_iPidPvS2_S2_S2_(double noundef %0, ptr nocapture noundef readonly %1, ptr nocapture readnone %2, ptr nocapture readnone %3, i32 %4, ptr noundef %5, double noundef %6, ptr noundef %7, ptr nocapture readnone %8, ptr nocapture readnone %9, ptr nocapture readnone %10) #3 align 2 personality ptr @__gxx_personality_v0 {
  %12 = invoke noundef ptr @_ZN6casadi15CvodesInterface6to_memEPv(ptr noundef %7)
          to label %13 unwind label %17

13:                                               ; preds = %11
  %14 = getelementptr inbounds i8, ptr %12, i64 560
  store double %6, ptr %14, align 8
  %15 = fneg double %6
  %16 = invoke noundef i32 @_ZN6casadi15CvodesInterface7psetupFEdP17_generic_N_VectorS2_iPidPvS2_S2_S2_(double noundef %0, ptr noundef %1, ptr poison, i32 poison, ptr noundef %5, double noundef %15, ptr noundef %7, ptr poison, ptr poison, ptr poison)
          to label %39 unwind label %17, !range !30

17:                                               ; preds = %13, %11
  %18 = landingpad { ptr, i32 }
          catch ptr @_ZTISt9exception
  %19 = extractvalue { ptr, i32 } %18, 1
  %20 = tail call i32 @llvm.eh.typeid.for(ptr nonnull @_ZTISt9exception) #20
  %21 = icmp eq i32 %19, %20
  br i1 %21, label %22, label %40

22:                                               ; preds = %17
  %23 = extractvalue { ptr, i32 } %18, 0
  %24 = tail call ptr @__cxa_begin_catch(ptr %23) #20
  %25 = invoke noundef nonnull align 8 dereferenceable(8) ptr @_ZN6casadi4uerrEv()
          to label %26 unwind label %37

26:                                               ; preds = %22
  %27 = invoke noundef nonnull align 8 dereferenceable(8) ptr @_ZStlsISt11char_traitsIcEERSt13basic_ostreamIcT_ES5_PKc(ptr noundef nonnull align 8 dereferenceable(8) %25, ptr noundef nonnull @.str.108)
          to label %28 unwind label %37

28:                                               ; preds = %26
  %29 = load ptr, ptr %24, align 8
  %30 = getelementptr inbounds i8, ptr %29, i64 16
  %31 = load ptr, ptr %30, align 8
  %32 = tail call noundef ptr %31(ptr noundef nonnull align 8 dereferenceable(8) %24) #20
  %33 = invoke noundef nonnull align 8 dereferenceable(8) ptr @_ZStlsISt11char_traitsIcEERSt13basic_ostreamIcT_ES5_PKc(ptr noundef nonnull align 8 dereferenceable(8) %27, ptr noundef %32)
          to label %34 unwind label %37

34:                                               ; preds = %28
  %35 = invoke noundef nonnull align 8 dereferenceable(8) ptr @_ZNSolsEPFRSoS_E(ptr noundef nonnull align 8 dereferenceable(8) %33, ptr noundef nonnull @_ZSt4endlIcSt11char_traitsIcEERSt13basic_ostreamIT_T0_ES6_)
          to label %36 unwind label %37

36:                                               ; preds = %34
  tail call void @__cxa_end_catch()
  br label %39

37:                                               ; preds = %34, %28, %26, %22
  %38 = landingpad { ptr, i32 }
          cleanup
  invoke void @__cxa_end_catch()
          to label %40 unwind label %41

39:                                               ; preds = %13, %36
  %.0 = phi i32 [ -1, %36 ], [ %16, %13 ]
  ret i32 %.0

40:                                               ; preds = %37, %17
  %.merged = phi { ptr, i32 } [ %38, %37 ], [ %18, %17 ]
  resume { ptr, i32 } %.merged

41:                                               ; preds = %37
  %42 = landingpad { ptr, i32 }
          catch ptr null
  %43 = extractvalue { ptr, i32 } %42, 0
  tail call void @__clang_call_terminate(ptr %43) #23
  unreachable
}